target datalayout = "e-m:e-p270:32:32-p271:32:32-p272:64:64-i64:64-i128:128-f80:128-n8:16:32:64-S128"
target triple = "x86_64-pc-linux-gnu"

%union.stbcc__global_clumpid = type { %struct.anon }
%struct.anon = type { i32 }
%struct.st_stbcc_grid = type { i32, i32, i32, i32, i32, [1024 x [128 x i8]], [1024 x [1024 x i16]], [32 x [32 x %struct.stbcc__cluster]] }
%struct.stbcc__cluster = type { i16, i8, i8, [512 x %struct.stbcc__clump], [128 x %struct.stbcc__relative_clumpid] }
%struct.stbcc__clump = type { %union.stbcc__global_clumpid, i8, i8, i8, i8 }
%struct.stbcc__relative_clumpid = type { i16 }
%struct.stbcc__unpacked_clumpid = type { i32, i32, i32 }

; Function Attrs: nounwind uwtable
define void @stbcc__clump_union(ptr noundef %0, i64 %1, i32 %2, i32 noundef %3, i32 noundef %4, i32 noundef %5) #0 {
  %7 = alloca %struct.stbcc__unpacked_clumpid, align 4
  %8 = alloca { i64, i32 }, align 4
  %9 = alloca ptr, align 8
  %10 = alloca i32, align 4
  %11 = alloca i32, align 4
  %12 = alloca i32, align 4
  %13 = alloca ptr, align 8
  %14 = alloca ptr, align 8
  %15 = alloca %union.stbcc__global_clumpid, align 4
  %16 = alloca %union.stbcc__global_clumpid, align 4
  %17 = alloca i32, align 4
  %18 = getelementptr inbounds nuw { i64, i32 }, ptr %8, i32 0, i32 0
  store i64 %1, ptr %18, align 4
  %19 = getelementptr inbounds nuw { i64, i32 }, ptr %8, i32 0, i32 1
  store i32 %2, ptr %19, align 4
  call void @llvm.memcpy.p0.p0.i64(ptr align 4 %7, ptr align 4 %8, i64 12, i1 false)
  store ptr %0, ptr %9, align 8, !tbaa !3
  store i32 %3, ptr %10, align 4, !tbaa !8
  store i32 %4, ptr %11, align 4, !tbaa !8
  store i32 %5, ptr %12, align 4, !tbaa !8
  call void @llvm.lifetime.start.p0(i64 8, ptr %13) #4
  %20 = load ptr, ptr %9, align 8, !tbaa !3
  %21 = getelementptr inbounds nuw %struct.st_stbcc_grid, ptr %20, i32 0, i32 7
  %22 = getelementptr inbounds nuw %struct.stbcc__unpacked_clumpid, ptr %7, i32 0, i32 1
  %23 = load i32, ptr %22, align 4, !tbaa !15
  %24 = zext i32 %23 to i64
  %25 = getelementptr inbounds nuw [32 x [32 x %struct.stbcc__cluster]], ptr %21, i64 0, i64 %24
  %26 = getelementptr inbounds nuw %struct.stbcc__unpacked_clumpid, ptr %7, i32 0, i32 0
  %27 = load i32, ptr %26, align 4, !tbaa !17
  %28 = zext i32 %27 to i64
  %29 = getelementptr inbounds nuw [32 x %struct.stbcc__cluster], ptr %25, i64 0, i64 %28
  %30 = getelementptr inbounds nuw %struct.stbcc__cluster, ptr %29, i32 0, i32 3
  %31 = getelementptr inbounds nuw %struct.stbcc__unpacked_clumpid, ptr %7, i32 0, i32 2
  %32 = load i32, ptr %31, align 4, !tbaa !18
  %33 = zext i32 %32 to i64
  %34 = getelementptr inbounds nuw [512 x %struct.stbcc__clump], ptr %30, i64 0, i64 %33
  store ptr %34, ptr %13, align 8, !tbaa !14
  call void @llvm.lifetime.start.p0(i64 8, ptr %14) #4
  %35 = load ptr, ptr %9, align 8, !tbaa !3
  %36 = getelementptr inbounds nuw %struct.st_stbcc_grid, ptr %35, i32 0, i32 7
  %37 = load i32, ptr %11, align 4, !tbaa !8
  %38 = sext i32 %37 to i64
  %39 = getelementptr inbounds [32 x [32 x %struct.stbcc__cluster]], ptr %36, i64 0, i64 %38
  %40 = load i32, ptr %10, align 4, !tbaa !8
  %41 = sext i32 %40 to i64
  %42 = getelementptr inbounds [32 x %struct.stbcc__cluster], ptr %39, i64 0, i64 %41
  %43 = getelementptr inbounds nuw %struct.stbcc__cluster, ptr %42, i32 0, i32 3
  %44 = load i32, ptr %12, align 4, !tbaa !8
  %45 = sext i32 %44 to i64
  %46 = getelementptr inbounds [512 x %struct.stbcc__clump], ptr %43, i64 0, i64 %45
  store ptr %46, ptr %14, align 8, !tbaa !14
  call void @llvm.lifetime.start.p0(i64 4, ptr %15) #4
  %47 = load ptr, ptr %9, align 8, !tbaa !3
  %48 = load ptr, ptr %13, align 8, !tbaa !14
  %49 = getelementptr inbounds nuw %struct.stbcc__clump, ptr %48, i32 0, i32 0
  %50 = getelementptr inbounds nuw %union.stbcc__global_clumpid, ptr %49, i32 0, i32 0
  %51 = getelementptr inbounds nuw %struct.anon, ptr %50, i32 0, i32 0
  %52 = load i32, ptr %51, align 4
  %53 = call i32 @stbcc__clump_find(ptr noundef %47, i32 %52)
  %54 = getelementptr inbounds nuw %union.stbcc__global_clumpid, ptr %15, i32 0, i32 0
  %55 = getelementptr inbounds nuw %struct.anon, ptr %54, i32 0, i32 0
  store i32 %53, ptr %55, align 4
  call void @llvm.lifetime.start.p0(i64 4, ptr %16) #4
  %56 = load ptr, ptr %9, align 8, !tbaa !3
  %57 = load ptr, ptr %14, align 8, !tbaa !14
  %58 = getelementptr inbounds nuw %struct.stbcc__clump, ptr %57, i32 0, i32 0
  %59 = getelementptr inbounds nuw %union.stbcc__global_clumpid, ptr %58, i32 0, i32 0
  %60 = getelementptr inbounds nuw %struct.anon, ptr %59, i32 0, i32 0
  %61 = load i32, ptr %60, align 4
  %62 = call i32 @stbcc__clump_find(ptr noundef %56, i32 %61)
  %63 = getelementptr inbounds nuw %union.stbcc__global_clumpid, ptr %16, i32 0, i32 0
  %64 = getelementptr inbounds nuw %struct.anon, ptr %63, i32 0, i32 0
  store i32 %62, ptr %64, align 4
  %65 = load i32, ptr %15, align 4, !tbaa !13
  %66 = load i32, ptr %16, align 4, !tbaa !13
  %67 = icmp eq i32 %65, %66
  br i1 %67, label %68, label %69

68:                                               ; preds = %6
  store i32 1, ptr %17, align 4
  br label %87

69:                                               ; preds = %6
  %70 = load ptr, ptr %9, align 8, !tbaa !3
  %71 = getelementptr inbounds nuw %struct.st_stbcc_grid, ptr %70, i32 0, i32 7
  %72 = load i32, ptr %15, align 4
  %73 = lshr i32 %72, 22
  %74 = zext i32 %73 to i64
  %75 = getelementptr inbounds nuw [32 x [32 x %struct.stbcc__cluster]], ptr %71, i64 0, i64 %74
  %76 = load i32, ptr %15, align 4
  %77 = lshr i32 %76, 12
  %78 = and i32 %77, 1023
  %79 = zext i32 %78 to i64
  %80 = getelementptr inbounds nuw [32 x %struct.stbcc__cluster], ptr %75, i64 0, i64 %79
  %81 = getelementptr inbounds nuw %struct.stbcc__cluster, ptr %80, i32 0, i32 3
  %82 = load i32, ptr %15, align 4
  %83 = and i32 %82, 4095
  %84 = zext i32 %83 to i64
  %85 = getelementptr inbounds nuw [512 x %struct.stbcc__clump], ptr %81, i64 0, i64 %84
  %86 = getelementptr inbounds nuw %struct.stbcc__clump, ptr %85, i32 0, i32 0
  call void @llvm.memcpy.p0.p0.i64(ptr align 4 %86, ptr align 4 %16, i64 4, i1 false), !tbaa.struct !12
  store i32 0, ptr %17, align 4
  br label %87

87:                                               ; preds = %69, %68
  call void @llvm.lifetime.end.p0(i64 4, ptr %16) #4
  call void @llvm.lifetime.end.p0(i64 4, ptr %15) #4
  call void @llvm.lifetime.end.p0(i64 8, ptr %14) #4
  call void @llvm.lifetime.end.p0(i64 8, ptr %13) #4
  %88 = load i32, ptr %17, align 4
  switch i32 %88, label %90 [
    i32 0, label %89
    i32 1, label %89
  ]

89:                                               ; preds = %87, %87
  ret void

90:                                               ; preds = %87
  unreachable
}