; Function Attrs: nofree nosync nounwind memory(argmem: readwrite) uwtable
define void @stbcc__clump_union(ptr noundef captures(none) %0, i64 %1, i32 %2, i32 noundef %3, i32 noundef %4, i32 noundef %5) local_unnamed_addr #3 {
  %.sroa.215.0.extract.shift = lshr i64 %1, 32
  %7 = getelementptr inbounds nuw i8, ptr %0, i64 2228244
  %8 = and i64 %1, 4294967295
  %.idx = mul nuw nsw i64 %.sroa.215.0.extract.shift, 139392
  %.idx17 = mul nuw nsw i64 %8, 4356
  %9 = getelementptr inbounds nuw i8, ptr %7, i64 %.idx
  %10 = getelementptr inbounds nuw i8, ptr %9, i64 %.idx17
  %11 = getelementptr inbounds nuw i8, ptr %10, i64 4
  %12 = zext i32 %2 to i64
  %13 = getelementptr inbounds nuw [512 x %struct.stbcc__clump], ptr %11, i64 0, i64 %12
  %14 = sext i32 %4 to i64
  %15 = sext i32 %3 to i64
  %.idx19 = mul nsw i64 %14, 139392
  %.idx20 = mul nsw i64 %15, 4356
  %16 = getelementptr i8, ptr %7, i64 %.idx19
  %17 = getelementptr i8, ptr %16, i64 %.idx20
  %18 = getelementptr i8, ptr %17, i64 4
  %19 = sext i32 %5 to i64
  %20 = getelementptr inbounds [512 x %struct.stbcc__clump], ptr %18, i64 0, i64 %19
  %21 = load i32, ptr %13, align 4
  %22 = tail call i32 @stbcc__clump_find(ptr noundef %0, i32 %21)
  %23 = load i32, ptr %20, align 4
  %24 = tail call i32 @stbcc__clump_find(ptr noundef %0, i32 %23)
  %25 = icmp eq i32 %22, %24
  br i1 %25, label %36, label %26

26:                                               ; preds = %6
  %27 = lshr i32 %22, 22
  %28 = lshr i32 %22, 12
  %29 = and i32 %28, 1023
  %narrow = mul nuw nsw i32 %27, 139392
  %narrow25 = mul nuw nsw i32 %29, 4356
  %narrow26 = add nuw nsw i32 %narrow25, %narrow
  %30 = zext nneg i32 %narrow26 to i64
  %31 = getelementptr inbounds nuw i8, ptr %7, i64 %30
  %32 = getelementptr inbounds nuw i8, ptr %31, i64 4
  %33 = and i32 %22, 4095
  %34 = zext nneg i32 %33 to i64
  %35 = getelementptr inbounds nuw [512 x %struct.stbcc__clump], ptr %32, i64 0, i64 %34
  store i32 %24, ptr %35, align 4, !tbaa !7
  br label %36

36:                                               ; preds = %6, %26
  ret void
}